#include <math.h>
#include <stdio.h>
#include <stdlib.h>
#include <string.h>

int main()
{
	char s[60],w[60],temp[60];
	int i,n,m,j,t;

	scanf("%s%s",s,w);
    n=strlen(w);
	m=strlen(s);

	for(i=0;i<n;i++)
	{
		temp[0]='\0';
		t=1;
		for(j=0;j<m;j++)
		  if(s[j]!=w[i+j])
		  {
		      t=0;
			  break;
		  }
		if(t)
			break;
		
	}

	printf("%d",i);

    return 0;
}