; ModuleID = 'source-C-CXX/44/1670.c'
source_filename = "source-C-CXX/44/1670.c"
target datalayout = "e-m:e-p270:32:32-p271:32:32-p272:64:64-i64:64-f80:128-n8:16:32:64-S128"
target triple = "x86_64-pc-linux-gnu"

@.str = private unnamed_addr constant [5 x i8] c"%s%s\00", align 1
@.str.1 = private unnamed_addr constant [3 x i8] c"%d\00", align 1

; Function Attrs: nofree nounwind sspstrong uwtable
define dso_local i32 @main() local_unnamed_addr #0 {
  %1 = alloca [60 x i8], align 16
  %2 = alloca [60 x i8], align 16
  %3 = getelementptr inbounds [60 x i8], [60 x i8]* %1, i64 0, i64 0
  call void @llvm.lifetime.start.p0i8(i64 60, i8* nonnull %3) #4
  %4 = getelementptr inbounds [60 x i8], [60 x i8]* %2, i64 0, i64 0
  call void @llvm.lifetime.start.p0i8(i64 60, i8* nonnull %4) #4
  %5 = call i32 (i8*, ...) @__isoc99_scanf(i8* getelementptr inbounds ([5 x i8], [5 x i8]* @.str, i64 0, i64 0), i8* nonnull %3, i8* nonnull %4)
  %6 = call i64 @strlen(i8* noundef nonnull %4) #5
  %7 = trunc i64 %6 to i32
  %8 = call i64 @strlen(i8* noundef nonnull %3) #5
  %9 = trunc i64 %8 to i32
  %10 = icmp slt i32 %9, 1
  %11 = icmp slt i32 %7, 1
  %12 = select i1 %11, i1 true, i1 %10
  br i1 %12, label %36, label %13

13:                                               ; preds = %0
  %14 = and i64 %6, 4294967295
  %15 = and i64 %8, 4294967295
  br label %16

16:                                               ; preds = %13, %29
  %17 = phi i64 [ 0, %13 ], [ %30, %29 ]
  br label %20

18:                                               ; preds = %20
  %19 = icmp eq i64 %28, %15
  br i1 %19, label %32, label %20, !llvm.loop !5

20:                                               ; preds = %16, %18
  %21 = phi i64 [ 0, %16 ], [ %28, %18 ]
  %22 = getelementptr inbounds [60 x i8], [60 x i8]* %1, i64 0, i64 %21
  %23 = load i8, i8* %22, align 1, !tbaa !7
  %24 = add nuw nsw i64 %21, %17
  %25 = getelementptr inbounds [60 x i8], [60 x i8]* %2, i64 0, i64 %24
  %26 = load i8, i8* %25, align 1, !tbaa !7
  %27 = icmp eq i8 %23, %26
  %28 = add nuw nsw i64 %21, 1
  br i1 %27, label %18, label %29

29:                                               ; preds = %20
  %30 = add nuw nsw i64 %17, 1
  %31 = icmp eq i64 %30, %14
  br i1 %31, label %34, label %16, !llvm.loop !10

32:                                               ; preds = %18
  %33 = trunc i64 %17 to i32
  br label %36

34:                                               ; preds = %29
  %35 = trunc i64 %6 to i32
  br label %36

36:                                               ; preds = %34, %32, %0
  %37 = phi i32 [ 0, %0 ], [ %33, %32 ], [ %35, %34 ]
  %38 = call i32 (i8*, ...) @printf(i8* nonnull dereferenceable(1) getelementptr inbounds ([3 x i8], [3 x i8]* @.str.1, i64 0, i64 0), i32 %37)
  call void @llvm.lifetime.end.p0i8(i64 60, i8* nonnull %4) #4
  call void @llvm.lifetime.end.p0i8(i64 60, i8* nonnull %3) #4
  ret i32 0
}

; Function Attrs: argmemonly mustprogress nofree nosync nounwind willreturn
declare void @llvm.lifetime.start.p0i8(i64 immarg, i8* nocapture) #1

; Function Attrs: nofree nounwind
declare noundef i32 @__isoc99_scanf(i8* nocapture noundef readonly, ...) local_unnamed_addr #2

; Function Attrs: argmemonly mustprogress nofree nounwind readonly willreturn
declare i64 @strlen(i8* nocapture) local_unnamed_addr #3

; Function Attrs: nofree nounwind
declare noundef i32 @printf(i8* nocapture noundef readonly, ...) local_unnamed_addr #2

; Function Attrs: argmemonly mustprogress nofree nosync nounwind willreturn
declare void @llvm.lifetime.end.p0i8(i64 immarg, i8* nocapture) #1


!llvm.module.flags = !{!0, !1, !2, !3}
!llvm.ident = !{!4}

!0 = !{i32 1, !"wchar_size", i32 4}
!1 = !{i32 7, !"PIC Level", i32 2}
!2 = !{i32 7, !"PIE Level", i32 2}
!3 = !{i32 7, !"uwtable", i32 1}
!4 = !{!"clang version 13.0.0"}
!5 = distinct !{!5, !6}
!6 = !{!"llvm.loop.mustprogress"}
!7 = !{!8, !8, i64 0}
!8 = !{!"omnipotent char", !9, i64 0}
!9 = !{!"Simple C/C++ TBAA"}
!10 = distinct !{!10, !6}
